target datalayout = "e-m:e-p270:32:32-p271:32:32-p272:64:64-i64:64-i128:128-f80:128-n8:16:32:64-S128"
target triple = "x86_64-pc-linux-gnu"

; Function Attrs: nounwind uwtable
define hidden i32 @mbedtls_des_key_check_key_parity(ptr noundef %0) #0 {
  %2 = alloca i32, align 4
  %3 = alloca ptr, align 8
  %4 = alloca i32, align 4
  %5 = alloca i32, align 4
  store ptr %0, ptr %3, align 8, !tbaa !10
  call void @llvm.lifetime.start.p0(i64 4, ptr %4) #8
  store i32 0, ptr %4, align 4, !tbaa !12
  br label %6

6:                                                ; preds = %30, %1
  %7 = load i32, ptr %4, align 4, !tbaa !12
  %8 = icmp slt i32 %7, 8
  br i1 %8, label %9, label %33

9:                                                ; preds = %6
  %10 = load ptr, ptr %3, align 8, !tbaa !10
  %11 = load i32, ptr %4, align 4, !tbaa !12
  %12 = sext i32 %11 to i64
  %13 = getelementptr inbounds i8, ptr %10, i64 %12
  %14 = load i8, ptr %13, align 1, !tbaa !14
  %15 = zext i8 %14 to i32
  %16 = load ptr, ptr %3, align 8, !tbaa !10
  %17 = load i32, ptr %4, align 4, !tbaa !12
  %18 = sext i32 %17 to i64
  %19 = getelementptr inbounds i8, ptr %16, i64 %18
  %20 = load i8, ptr %19, align 1, !tbaa !14
  %21 = zext i8 %20 to i32
  %22 = sdiv i32 %21, 2
  %23 = sext i32 %22 to i64
  %24 = getelementptr inbounds [128 x i8], ptr @odd_parity_table, i64 0, i64 %23
  %25 = load i8, ptr %24, align 1, !tbaa !14
  %26 = zext i8 %25 to i32
  %27 = icmp ne i32 %15, %26
  br i1 %27, label %28, label %29

28:                                               ; preds = %9
  store i32 1, ptr %2, align 4
  store i32 1, ptr %5, align 4
  br label %34

29:                                               ; preds = %9
  br label %30

30:                                               ; preds = %29
  %31 = load i32, ptr %4, align 4, !tbaa !12
  %32 = add nsw i32 %31, 1
  store i32 %32, ptr %4, align 4, !tbaa !12
  br label %6, !llvm.loop !17

33:                                               ; preds = %6
  store i32 0, ptr %2, align 4
  store i32 1, ptr %5, align 4
  br label %34

34:                                               ; preds = %33, %28
  call void @llvm.lifetime.end.p0(i64 4, ptr %4) #8
  %35 = load i32, ptr %2, align 4
  ret i32 %35
}