; Function Attrs: nofree norecurse nosync nounwind memory(argmem: read) uwtable
define hidden range(i32 0, 2) i32 @mbedtls_des_key_check_key_parity(ptr noundef readonly captures(none) %0) local_unnamed_addr #6 {
  br label %3

2:                                                ; preds = %3
  %indvars.iv.next = add nuw nsw i64 %indvars.iv, 1
  %exitcond.not = icmp eq i64 %indvars.iv.next, 8
  br i1 %exitcond.not, label %10, label %3, !llvm.loop !8

3:                                                ; preds = %1, %2
  %indvars.iv = phi i64 [ 0, %1 ], [ %indvars.iv.next, %2 ]
  %4 = getelementptr inbounds nuw i8, ptr %0, i64 %indvars.iv
  %5 = load i8, ptr %4, align 1, !tbaa !3
  %6 = lshr i8 %5, 1
  %7 = zext nneg i8 %6 to i64
  %8 = getelementptr inbounds nuw [128 x i8], ptr @odd_parity_table, i64 0, i64 %7
  %9 = load i8, ptr %8, align 1, !tbaa !3
  %.not = icmp eq i8 %5, %9
  br i1 %.not, label %2, label %10

10:                                               ; preds = %2, %3
  %.06 = phi i32 [ 1, %3 ], [ 0, %2 ]
  ret i32 %.06
}